(dp1
S'weekend'
p2
(dp3
S'\xe6\xac\xa3\xe5\x9b\xad'
p4
(dp5
I1
S'7:30'
p6
sI2
S'8:00'
p7
sI3
S'8:30'
p8
sI4
S'9:00'
p9
sI5
S'9:30'
p10
sI6
S'10:00'
p11
sI7
S'10:30'
p12
sI8
S'11:00'
p13
sI9
S'11:30'
p14
sI10
S'12:00'
p15
sI11
S'12:30'
p16
sI12
g16
sI13
S'13:00'
p17
sI14
S'13:30'
p18
sI15
S'14:00'
p19
sI16
S'14:30'
p20
sI17
S'15:00'
p21
sI18
S'15:30'
p22
sI19
S'16:00'
p23
sI20
S'16:30'
p24
sI21
S'17:00'
p25
sI22
S'17:30'
p26
sI23
S'18:00'
p27
sI24
S'19:00'
p28
sI25
S'20:00'
p29
sI26
S'21:00'
p30
ssS'\xe7\xa7\x91\xe7\xa0\x94\xe6\xa5\xbc'
p31
(dp32
I1
S'7:50'
p33
sI2
S'8:20'
p34
sI3
S'8:50'
p35
sI4
S'9:20'
p36
sI5
S'9:50'
p37
sI6
S'10:20'
p38
sI7
S'10:50'
p39
sI8
S'11:20'
p40
sI9
S'11:50'
p41
sI10
S'12:20'
p42
sI11
S'12:50'
p43
sI12
S'13:20'
p44
sI13
S'13:50'
p45
sI14
S'14:20'
p46
sI15
S'14:50'
p47
sI16
S'15:20'
p48
sI17
S'15:50'
p49
sI18
S'16:20'
p50
sI19
S'16:50'
p51
sI20
S'17:20'
p52
sI21
S'17:50'
p53
sI22
S'18:20'
p54
sI23
S'19:20'
p55
sI24
S'20:20'
p56
sI25
S'21:20'
p57
sI26
S'22:00'
p58
sssS'weekday'
p59
(dp60
g4
(dp61
I1
S'7:20'
p62
sI2
g6
sI3
S'7:40'
p63
sI4
g7
sI5
g34
sI6
S'8:40'
p64
sI7
g9
sI8
g36
sI9
S'9:40'
p65
sI10
g37
sI11
g11
sI12
g38
sI13
S'10:40'
p66
sI14
g13
sI15
g40
sI16
S'11:40'
p67
sI17
g15
sI18
S'12:10'
p68
sI19
g42
sI20
g16
sI21
S'12:40'
p69
sI22
g17
sI23
g44
sI24
g18
sI25
S'13:40'
p70
sI26
g19
sI27
g46
sI28
S'14:40'
p71
sI29
g21
sI30
g48
sI31
S'15:40'
p72
sI32
g49
sI33
g23
sI34
g50
sI35
S'16:40'
p73
sI36
g25
sI37
g52
sI38
S'17:40'
p74
sI39
g27
sI40
g28
sI41
g29
sI42
g30
ssg31
(dp75
I1
g33
sI2
S'8:10'
p76
sI3
g34
sI4
g64
sI5
g9
sI6
g36
sI7
g65
sI8
g37
sI9
g11
sI10
g38
sI11
g66
sI12
g13
sI13
g40
sI14
g67
sI15
g15
sI16
g42
sI17
g16
sI18
g69
sI19
g17
sI20
g44
sI21
g70
sI22
g19
sI23
g46
sI24
g71
sI25
g21
sI26
g48
sI27
g72
sI28
g49
sI29
g23
sI30
g50
sI31
g73
sI32
g25
sI33
g52
sI34
g74
sI35
g27
sI36
g54
sI37
g55
sI38
g56
sI39
g57
sI40
g58
sss.