(dp1
S'weekend'
p2
(dp3
S'tsg'
p4
(dp5
I1
S'7:50'
p6
sI2
S'8:20'
p7
sI3
S'8:50'
p8
sI4
S'9:20'
p9
sI5
S'9:50'
p10
sI6
S'10:20'
p11
sI7
S'10:50'
p12
sI8
S'11:20'
p13
sI9
S'11:50'
p14
sI10
S'12:20'
p15
sI11
S'12:50'
p16
sI12
S'13:20'
p17
sI13
S'13:50'
p18
sI14
S'14:20'
p19
sI15
S'14:50'
p20
sI16
S'15:20'
p21
sI17
S'15:50'
p22
sI18
S'16:20'
p23
sI19
S'16:50'
p24
sI20
S'17:20'
p25
sI21
S'17:50'
p26
sI22
S'18:20'
p27
sI23
S'19:20'
p28
sI24
S'20:20'
p29
sI25
S'21:20'
p30
sI26
S'22:00'
p31
ssS'ly'
p32
(dp33
I1
S'7:30'
p34
sI2
S'8:00'
p35
sI3
S'8:30'
p36
sI4
S'9:00'
p37
sI5
S'9:30'
p38
sI6
S'10:00'
p39
sI7
S'10:30'
p40
sI8
S'11:00'
p41
sI9
S'11:30'
p42
sI10
S'12:00'
p43
sI11
S'12:30'
p44
sI12
g44
sI13
S'13:00'
p45
sI14
S'13:30'
p46
sI15
S'14:00'
p47
sI16
S'14:30'
p48
sI17
S'15:00'
p49
sI18
S'15:30'
p50
sI19
S'16:00'
p51
sI20
S'16:30'
p52
sI21
S'17:00'
p53
sI22
S'17:30'
p54
sI23
S'18:00'
p55
sI24
S'19:00'
p56
sI25
S'20:00'
p57
sI26
S'21:00'
p58
sssS'weekday'
p59
(dp60
g4
(dp61
I1
g6
sI2
S'8:10'
p62
sI3
g7
sI4
S'8:40'
p63
sI5
g37
sI6
g9
sI7
S'9:40'
p64
sI8
g10
sI9
g39
sI10
g11
sI11
S'10:40'
p65
sI12
g41
sI13
g13
sI14
S'11:40'
p66
sI15
g43
sI16
g15
sI17
g44
sI18
S'12:40'
p67
sI19
g45
sI20
g17
sI21
S'13:40'
p68
sI22
g47
sI23
g19
sI24
S'14:40'
p69
sI25
g49
sI26
g21
sI27
S'15:40'
p70
sI28
g22
sI29
g51
sI30
g23
sI31
S'16:40'
p71
sI32
g53
sI33
g25
sI34
S'17:40'
p72
sI35
g55
sI36
g27
sI37
g28
sI38
g29
sI39
g30
sI40
g31
ssg32
(dp73
I1
S'7:20'
p74
sI2
g34
sI3
S'7:40'
p75
sI4
g35
sI5
g7
sI6
g63
sI7
g37
sI8
g9
sI9
g64
sI10
g10
sI11
g39
sI12
g11
sI13
g65
sI14
g41
sI15
g13
sI16
g66
sI17
g43
sI18
S'12:10'
p76
sI19
g15
sI20
g44
sI21
g67
sI22
g45
sI23
g17
sI24
g46
sI25
g68
sI26
g47
sI27
g19
sI28
g69
sI29
g49
sI30
g21
sI31
g70
sI32
g22
sI33
g51
sI34
g23
sI35
g71
sI36
g53
sI37
g25
sI38
g72
sI39
g55
sI40
g56
sI41
g57
sI42
g58
sss.