(dp1
S'weekend'
p2
(dp3
S'tsg'
p4
(dp5
I1
S'8:05'
p6
sI2
S'8:35'
p7
sI3
S'9:05'
p8
sI4
S'9:35'
p9
sI5
S'10:05'
p10
sI6
S'11:15'
p11
sI7
S'11:45'
p12
sI8
S'12:15'
p13
sI9
S'14:15'
p14
sI10
S'14:45'
p15
sI11
S'15:15'
p16
sI12
S'16:15'
p17
sI13
S'17:15'
p18
sI14
S'19:15'
p19
sI15
S'20:15'
p20
sI16
S'21:00'
p21
ssS'ly'
p22
(dp23
I1
S'7:40'
p24
sI2
S'8:20'
p25
sI3
S'8:50'
p26
sI4
S'9:20'
p27
sI5
S'9:50'
p28
sI6
S'11:00'
p29
sI7
S'11:30'
p30
sI8
S'12:00'
p31
sI9
S'14:00'
p32
sI10
S'14:30'
p33
sI11
S'15:00'
p34
sI12
S'16:00'
p35
sI13
S'17:00'
p36
sI14
S'19:00'
p37
sI15
S'20:00'
p38
sI16
S'20:45'
p39
sssS'weekday'
p40
(dp41
g4
(dp42
I1
S'7:30'
p43
sI2
g24
sI3
S'7:50'
p44
sI4
S'8:00'
p45
sI5
S'8:10'
p46
sI6
S'8:30'
p47
sI7
g26
sI8
S'9:10'
p48
sI9
S'9:30'
p49
sI10
g28
sI11
S'10:00'
p50
sI12
S'10:10'
p51
sI13
S'10:30'
p52
sI14
S'10:50'
p53
sI15
S'11:10'
p54
sI16
g30
sI17
S'11:50'
p55
sI18
g31
sI19
S'12:10'
p56
sI20
S'12:20'
p57
sI21
S'12:30'
p58
sI22
S'12:40'
p59
sI23
S'12:50'
p60
sI24
S'13:10'
p61
sI25
S'13:30'
p62
sI26
S'13:40'
p63
sI27
S'13:50'
p64
sI28
S'14:10'
p65
sI29
g33
sI30
S'14:50'
p66
sI31
S'15:10'
p67
sI32
S'15:30'
p68
sI33
S'15:50'
p69
sI34
g35
sI35
S'16:10'
p70
sI36
S'16:30'
p71
sI37
S'16:50'
p72
sI38
S'17:10'
p73
sI39
S'17:30'
p74
sI40
S'17:40'
p75
sI41
S'17:50'
p76
sI42
S'18:10'
p77
sI43
S'18:40'
p78
sI44
S'20:10'
p79
sI45
S'21:10'
p80
sI46
S'22:05'
p81
ssg22
(dp82
I1
S'7:20'
p83
sI2
g43
sI3
g24
sI4
g45
sI5
g25
sI6
S'8:40'
p84
sI7
S'9:00'
p85
sI8
g27
sI9
S'9:40'
p86
sI10
g28
sI11
g50
sI12
S'10:20'
p87
sI13
S'10:40'
p88
sI14
g29
sI15
S'11:20'
p89
sI16
S'11:40'
p90
sI17
g31
sI18
g56
sI19
g57
sI20
g58
sI21
g59
sI22
S'13:00'
p91
sI23
S'13:20'
p92
sI24
g62
sI25
g63
sI26
g32
sI27
S'14:20'
p93
sI28
S'14:40'
p94
sI29
g34
sI30
S'15:20'
p95
sI31
S'15:40'
p96
sI32
g69
sI33
g35
sI34
S'16:20'
p97
sI35
S'16:40'
p98
sI36
g36
sI37
S'17:20'
p99
sI38
g74
sI39
g75
sI40
S'18:00'
p100
sI41
S'18:30'
p101
sI42
S'18:50'
p102
sI43
g38
sI44
g21
sss.